target datalayout = "e-m:e-p270:32:32-p271:32:32-p272:64:64-i64:64-i128:128-f80:128-n8:16:32:64-S128"
target triple = "x86_64-pc-linux-gnu"

%struct.addr_entry_s = type { [8 x i8], i16, i8 }
%struct._packet_info = type { ptr, ptr, i32, i32, %struct.nstime_t, %struct.nstime_t, %struct.nstime_t, i8, ptr, ptr, ptr, ptr, %struct._address, %struct._address, %struct._address, %struct._address, %struct._address, %struct._address, i32, ptr, i8, [3 x i8], %struct.anon, i32, i32, i32, i32, ptr, i8, ptr, ptr, i16, i16, i32, i32, i16, i32, i32, ptr, ptr, ptr, i8, i8, i16, i16, i16, i32, i16, i16, ptr, ptr, ptr, ptr, ptr, i32, i32 }
%struct.nstime_t = type { i64, i32 }
%struct._address = type { i32, i32, ptr, ptr }
%struct.anon = type { i8, [3 x i8] }
%struct.ieee802154_hints_t = type { i16, i16, i16, ptr, ptr }

@addr_table = internal global [128 x %struct.addr_entry_s] zeroinitializer, align 16
@.str = private unnamed_addr constant [5 x i8] c"wpan\00", align 1

; Function Attrs: alwaysinline nounwind
define internal ptr @memcpy.inline(ptr noalias %0, ptr noalias %1, i64 %2) #1 {
  %4 = alloca ptr, align 8
  %5 = alloca ptr, align 8
  %6 = alloca i64, align 8
  store ptr %0, ptr %4, align 8
  store ptr %1, ptr %5, align 8
  store i64 %2, ptr %6, align 8
  %7 = load ptr, ptr %4, align 8
  %8 = load ptr, ptr %5, align 8
  %9 = load i64, ptr %6, align 8
  %10 = load ptr, ptr %4, align 8
  %11 = call i64 @llvm.objectsize.i64.p0(ptr %10, i1 false, i1 true, i1 true)
  %12 = call ptr @__memcpy_chk(ptr noundef %7, ptr noundef %8, i64 noundef %9, i64 noundef %11) #9
  ret ptr %12
}

; Function Attrs: null_pointer_is_valid sspstrong uwtable
define hidden zeroext i1 @rf4ce_addr_table_get_ieee_addr(ptr noundef %0, ptr noundef %1, i1 noundef zeroext %2) #2 {
  %4 = alloca i1, align 1
  %5 = alloca ptr, align 8
  %6 = alloca ptr, align 8
  %7 = alloca i8, align 1
  %8 = alloca i8, align 1
  %9 = alloca i32, align 4
  %10 = alloca ptr, align 8
  %11 = alloca ptr, align 8
  %12 = alloca i16, align 2
  %13 = alloca i32, align 4
  %14 = alloca i32, align 4
  store ptr %0, ptr %5, align 8
  store ptr %1, ptr %6, align 8
  %15 = zext i1 %2 to i8
  store i8 %15, ptr %7, align 1
  call void @llvm.lifetime.start.p0(i64 1, ptr %8) #9
  store i8 0, ptr %8, align 1
  call void @llvm.lifetime.start.p0(i64 4, ptr %9) #9
  call void @llvm.lifetime.start.p0(i64 8, ptr %10) #9
  call void @llvm.lifetime.start.p0(i64 8, ptr %11) #9
  store ptr null, ptr %11, align 8
  call void @llvm.lifetime.start.p0(i64 2, ptr %12) #9
  store i16 -1, ptr %12, align 2
  %16 = load ptr, ptr %5, align 8
  %17 = icmp eq ptr %16, null
  br i1 %17, label %21, label %18

18:                                               ; preds = %3
  %19 = load ptr, ptr %6, align 8
  %20 = icmp eq ptr %19, null
  br i1 %20, label %21, label %22

21:                                               ; preds = %18, %3
  store i1 false, ptr %4, align 1
  store i32 1, ptr %13, align 4
  br label %133

22:                                               ; preds = %18
  %23 = load i8, ptr %7, align 1, !range !6, !noundef !7
  %24 = trunc i8 %23 to i1
  br i1 %24, label %25, label %34

25:                                               ; preds = %22
  %26 = load ptr, ptr %6, align 8
  %27 = getelementptr inbounds nuw %struct._packet_info, ptr %26, i32 0, i32 12
  %28 = getelementptr inbounds nuw %struct._address, ptr %27, i32 0, i32 0
  %29 = load i32, ptr %28, align 8
  store i32 %29, ptr %9, align 4
  %30 = load ptr, ptr %6, align 8
  %31 = getelementptr inbounds nuw %struct._packet_info, ptr %30, i32 0, i32 12
  %32 = getelementptr inbounds nuw %struct._address, ptr %31, i32 0, i32 2
  %33 = load ptr, ptr %32, align 8
  store ptr %33, ptr %11, align 8
  br label %43

34:                                               ; preds = %22
  %35 = load ptr, ptr %6, align 8
  %36 = getelementptr inbounds nuw %struct._packet_info, ptr %35, i32 0, i32 13
  %37 = getelementptr inbounds nuw %struct._address, ptr %36, i32 0, i32 0
  %38 = load i32, ptr %37, align 8
  store i32 %38, ptr %9, align 4
  %39 = load ptr, ptr %6, align 8
  %40 = getelementptr inbounds nuw %struct._packet_info, ptr %39, i32 0, i32 13
  %41 = getelementptr inbounds nuw %struct._address, ptr %40, i32 0, i32 2
  %42 = load ptr, ptr %41, align 8
  store ptr %42, ptr %11, align 8
  br label %43

43:                                               ; preds = %34, %25
  %44 = load i32, ptr %9, align 4
  %45 = icmp eq i32 %44, 8
  br i1 %45, label %46, label %51

46:                                               ; preds = %43
  %47 = load ptr, ptr %11, align 8
  %48 = icmp eq ptr %47, null
  br i1 %48, label %49, label %50

49:                                               ; preds = %46
  store i1 false, ptr %4, align 1
  store i32 1, ptr %13, align 4
  br label %133

50:                                               ; preds = %46
  br label %75

51:                                               ; preds = %43
  %52 = call ptr @wmem_file_scope()
  %53 = load ptr, ptr %6, align 8
  %54 = call i32 @proto_get_id_by_filter_name(ptr noundef @.str)
  %55 = call ptr @p_get_proto_data(ptr noundef %52, ptr noundef %53, i32 noundef %54, i32 noundef 0)
  store ptr %55, ptr %10, align 8
  %56 = load ptr, ptr %10, align 8
  %57 = icmp eq ptr %56, null
  br i1 %57, label %58, label %59

58:                                               ; preds = %51
  store i1 false, ptr %4, align 1
  store i32 1, ptr %13, align 4
  br label %133

59:                                               ; preds = %51
  %60 = load i8, ptr %7, align 1, !range !6, !noundef !7
  %61 = trunc i8 %60 to i1
  br i1 %61, label %62, label %67

62:                                               ; preds = %59
  %63 = load ptr, ptr %10, align 8
  %64 = getelementptr inbounds nuw %struct.ieee802154_hints_t, ptr %63, i32 0, i32 1
  %65 = load i16, ptr %64, align 2
  %66 = zext i16 %65 to i32
  br label %72

67:                                               ; preds = %59
  %68 = load ptr, ptr %10, align 8
  %69 = getelementptr inbounds nuw %struct.ieee802154_hints_t, ptr %68, i32 0, i32 2
  %70 = load i16, ptr %69, align 4
  %71 = zext i16 %70 to i32
  br label %72

72:                                               ; preds = %67, %62
  %73 = phi i32 [ %66, %62 ], [ %71, %67 ]
  %74 = trunc i32 %73 to i16
  store i16 %74, ptr %12, align 2
  br label %75

75:                                               ; preds = %72, %50
  call void @llvm.lifetime.start.p0(i64 4, ptr %14) #9
  store i32 0, ptr %14, align 4
  br label %76

76:                                               ; preds = %126, %75
  %77 = load i32, ptr %14, align 4
  %78 = icmp ult i32 %77, 128
  br i1 %78, label %80, label %79

79:                                               ; preds = %76
  store i32 2, ptr %13, align 4
  br label %129

80:                                               ; preds = %76
  %81 = load i32, ptr %14, align 4
  %82 = zext i32 %81 to i64
  %83 = getelementptr [128 x %struct.addr_entry_s], ptr @addr_table, i64 0, i64 %82
  %84 = getelementptr inbounds nuw %struct.addr_entry_s, ptr %83, i32 0, i32 2
  %85 = load i8, ptr %84, align 2, !range !6, !noundef !7
  %86 = trunc i8 %85 to i1
  br i1 %86, label %87, label %125

87:                                               ; preds = %80
  %88 = load i32, ptr %9, align 4
  %89 = icmp eq i32 %88, 8
  br i1 %89, label %90, label %101

90:                                               ; preds = %87
  %91 = load i32, ptr %14, align 4
  %92 = zext i32 %91 to i64
  %93 = getelementptr [128 x %struct.addr_entry_s], ptr @addr_table, i64 0, i64 %92
  %94 = getelementptr inbounds nuw %struct.addr_entry_s, ptr %93, i32 0, i32 0
  %95 = getelementptr inbounds [8 x i8], ptr %94, i64 0, i64 0
  %96 = load ptr, ptr %11, align 8
  %97 = call i32 @memcmp(ptr noundef %95, ptr noundef %96, i64 noundef 8) #10
  %98 = icmp eq i32 %97, 0
  br i1 %98, label %99, label %100

99:                                               ; preds = %90
  store i8 1, ptr %8, align 1
  br label %100

100:                                              ; preds = %99, %90
  br label %113

101:                                              ; preds = %87
  %102 = load i32, ptr %14, align 4
  %103 = zext i32 %102 to i64
  %104 = getelementptr [128 x %struct.addr_entry_s], ptr @addr_table, i64 0, i64 %103
  %105 = getelementptr inbounds nuw %struct.addr_entry_s, ptr %104, i32 0, i32 1
  %106 = load i16, ptr %105, align 4
  %107 = zext i16 %106 to i32
  %108 = load i16, ptr %12, align 2
  %109 = zext i16 %108 to i32
  %110 = icmp eq i32 %107, %109
  br i1 %110, label %111, label %112

111:                                              ; preds = %101
  store i8 1, ptr %8, align 1
  br label %112

112:                                              ; preds = %111, %101
  br label %113

113:                                              ; preds = %112, %100
  %114 = load i8, ptr %8, align 1, !range !6, !noundef !7
  %115 = trunc i8 %114 to i1
  br i1 %115, label %116, label %124

116:                                              ; preds = %113
  %117 = load ptr, ptr %5, align 8
  %118 = load i32, ptr %14, align 4
  %119 = zext i32 %118 to i64
  %120 = getelementptr [128 x %struct.addr_entry_s], ptr @addr_table, i64 0, i64 %119
  %121 = getelementptr inbounds nuw %struct.addr_entry_s, ptr %120, i32 0, i32 0
  %122 = getelementptr inbounds [8 x i8], ptr %121, i64 0, i64 0
  %123 = call ptr @memcpy.inline(ptr noundef %117, ptr noundef %122, i64 noundef 8) #9
  store i32 2, ptr %13, align 4
  br label %129

124:                                              ; preds = %113
  br label %125

125:                                              ; preds = %124, %80
  br label %126

126:                                              ; preds = %125
  %127 = load i32, ptr %14, align 4
  %128 = add i32 %127, 1
  store i32 %128, ptr %14, align 4
  br label %76, !llvm.loop !18

129:                                              ; preds = %116, %79
  call void @llvm.lifetime.end.p0(i64 4, ptr %14) #9
  br label %130

130:                                              ; preds = %129
  %131 = load i8, ptr %8, align 1, !range !6, !noundef !7
  %132 = trunc i8 %131 to i1
  store i1 %132, ptr %4, align 1
  store i32 1, ptr %13, align 4
  br label %133

133:                                              ; preds = %130, %58, %49, %21
  call void @llvm.lifetime.end.p0(i64 2, ptr %12) #9
  call void @llvm.lifetime.end.p0(i64 8, ptr %11) #9
  call void @llvm.lifetime.end.p0(i64 8, ptr %10) #9
  call void @llvm.lifetime.end.p0(i64 4, ptr %9) #9
  call void @llvm.lifetime.end.p0(i64 1, ptr %8) #9
  %134 = load i1, ptr %4, align 1
  ret i1 %134
}