; Function Attrs: null_pointer_is_valid sspstrong uwtable
define hidden noundef zeroext i1 @rf4ce_addr_table_get_ieee_addr(ptr noundef %0, ptr noundef %1, i1 noundef zeroext %2) local_unnamed_addr #6 {
  %4 = icmp eq ptr %0, null
  %5 = icmp eq ptr %1, null
  %or.cond = or i1 %4, %5
  br i1 %or.cond, label %.loopexit, label %6

6:                                                ; preds = %3
  %.030.in.v = select i1 %2, i64 112, i64 136
  %.030.in = getelementptr inbounds nuw i8, ptr %1, i64 %.030.in.v
  %.028.in.v = select i1 %2, i64 120, i64 144
  %.028.in = getelementptr inbounds nuw i8, ptr %1, i64 %.028.in.v
  %.028 = load ptr, ptr %.028.in, align 8
  %.030 = load i32, ptr %.030.in, align 8
  %7 = icmp eq i32 %.030, 8
  br i1 %7, label %8, label %10

8:                                                ; preds = %6
  %9 = icmp eq ptr %.028, null
  br i1 %9, label %.loopexit, label %.split.us

10:                                               ; preds = %6
  %11 = tail call ptr @wmem_file_scope()
  %12 = tail call i32 @proto_get_id_by_filter_name(ptr noundef nonnull @.str)
  %13 = tail call ptr @p_get_proto_data(ptr noundef %11, ptr noundef nonnull %1, i32 noundef %12, i32 noundef 0)
  %14 = icmp eq ptr %13, null
  br i1 %14, label %.loopexit, label %.split.preheader

.split.preheader:                                 ; preds = %10
  %.in.in.v = select i1 %2, i64 2, i64 4
  %.in.in = getelementptr inbounds nuw i8, ptr %13, i64 %.in.in.v
  %.in35 = load i16, ptr %.in.in, align 2
  br label %.split

.split.us:                                        ; preds = %8, %21
  %indvars.iv49 = phi i64 [ %indvars.iv.next50, %21 ], [ 0, %8 ]
  %15 = getelementptr [128 x %struct.addr_entry_s], ptr @addr_table, i64 0, i64 %indvars.iv49
  %16 = getelementptr inbounds nuw i8, ptr %15, i64 10
  %17 = load i8, ptr %16, align 2, !range !8, !noundef !9
  %18 = trunc nuw i8 %17 to i1
  br i1 %18, label %19, label %21

19:                                               ; preds = %.split.us
  %bcmp.us = tail call i32 @bcmp(ptr noundef dereferenceable(8) %15, ptr noundef nonnull dereferenceable(8) %.028, i64 8)
  %20 = icmp eq i32 %bcmp.us, 0
  br i1 %20, label %.split41.us, label %21

21:                                               ; preds = %19, %.split.us
  %indvars.iv.next50 = add nuw nsw i64 %indvars.iv49, 1
  %exitcond52.not = icmp eq i64 %indvars.iv.next50, 128
  br i1 %exitcond52.not, label %.loopexit, label %.split.us, !llvm.loop !30

.split:                                           ; preds = %.split.preheader, %31
  %indvars.iv = phi i64 [ 0, %.split.preheader ], [ %indvars.iv.next, %31 ]
  %22 = getelementptr [128 x %struct.addr_entry_s], ptr @addr_table, i64 0, i64 %indvars.iv
  %23 = getelementptr inbounds nuw i8, ptr %22, i64 10
  %24 = load i8, ptr %23, align 2, !range !8, !noundef !9
  %25 = trunc nuw i8 %24 to i1
  br i1 %25, label %26, label %31

26:                                               ; preds = %.split
  %27 = getelementptr inbounds nuw i8, ptr %22, i64 8
  %28 = load i16, ptr %27, align 4
  %29 = icmp eq i16 %.in35, %28
  br i1 %29, label %.split41.us, label %31

.split41.us:                                      ; preds = %26, %19
  %.us-phi = phi ptr [ %15, %19 ], [ %22, %26 ]
  %30 = load i64, ptr %.us-phi, align 1
  store i64 %30, ptr %0, align 1
  br label %.loopexit

31:                                               ; preds = %.split, %26
  %indvars.iv.next = add nuw nsw i64 %indvars.iv, 1
  %exitcond.not = icmp eq i64 %indvars.iv.next, 128
  br i1 %exitcond.not, label %.loopexit, label %.split, !llvm.loop !30

.loopexit:                                        ; preds = %31, %21, %.split41.us, %10, %8, %3
  %.029 = phi i1 [ false, %3 ], [ false, %8 ], [ false, %10 ], [ true, %.split41.us ], [ false, %21 ], [ false, %31 ]
  ret i1 %.029
}